; Function Attrs: mustprogress uwtable
define hidden noundef ptr @_ZN11ast_manager18mk_oeq_quant_introEP10quantifierS1_P3app(ptr noundef nonnull align 8 dereferenceable(976) %0, ptr noundef %1, ptr noundef %2, ptr noundef %3) local_unnamed_addr #7 align 2 {
  %5 = alloca [2 x ptr], align 16
  %6 = alloca [2 x ptr], align 16
  %.not = icmp eq ptr %3, null
  br i1 %.not, label %30, label %7

7:                                                ; preds = %4
  call void @llvm.lifetime.start.p0(i64 16, ptr nonnull %6) #38
  store ptr %1, ptr %6, align 16, !tbaa !124
  %8 = getelementptr inbounds nuw i8, ptr %6, i64 8
  store ptr %2, ptr %8, align 8, !tbaa !124
  %9 = getelementptr inbounds nuw i8, ptr %0, i64 704
  %10 = load ptr, ptr %9, align 8, !tbaa !33
  %11 = icmp eq ptr %10, null
  br i1 %11, label %_ZN11ast_manager6mk_oeqEP4exprS1_.exit.thread, label %_ZNK6vectorIP11decl_pluginLb0EjE3getEjRKS1_.exit.i.i.i.i.i

_ZN11ast_manager6mk_oeqEP4exprS1_.exit.thread:    ; preds = %7
  call void @llvm.lifetime.end.p0(i64 16, ptr nonnull %6) #38
  call void @llvm.lifetime.start.p0(i64 16, ptr nonnull %5) #38
  br label %_ZN11ast_manager6mk_appEiiP4exprS1_.exit

_ZNK6vectorIP11decl_pluginLb0EjE3getEjRKS1_.exit.i.i.i.i.i: ; preds = %7
  %12 = getelementptr inbounds i8, ptr %10, i64 -4
  %13 = load i32, ptr %12, align 4, !tbaa !24
  %.not.i.i.i.i.i.not.i = icmp eq i32 %13, 0
  br i1 %.not.i.i.i.i.i.not.i, label %_ZN11ast_manager6mk_oeqEP4exprS1_.exit, label %_ZNK11ast_manager10get_pluginEi.exit.i.i.i.i

_ZNK11ast_manager10get_pluginEi.exit.i.i.i.i:     ; preds = %_ZNK6vectorIP11decl_pluginLb0EjE3getEjRKS1_.exit.i.i.i.i.i
  %.then.val.i.i.i.i.i = load ptr, ptr %10, align 8, !tbaa !37
  %.not.i.i.i.i = icmp eq ptr %.then.val.i.i.i.i.i, null
  br i1 %.not.i.i.i.i, label %_ZN11ast_manager6mk_oeqEP4exprS1_.exit, label %_ZN11ast_manager12mk_func_declEiijPK9parameterjPKP4exprP4sort.exit.i.i.i

_ZN11ast_manager12mk_func_declEiijPK9parameterjPKP4exprP4sort.exit.i.i.i: ; preds = %_ZNK11ast_manager10get_pluginEi.exit.i.i.i.i
  %14 = load ptr, ptr %.then.val.i.i.i.i.i, align 8, !tbaa !39
  %15 = getelementptr inbounds nuw i8, ptr %14, i64 64
  %16 = load ptr, ptr %15, align 8
  %17 = call noundef ptr %16(ptr noundef nonnull align 8 dereferenceable(20) %.then.val.i.i.i.i.i, i32 noundef 10, i32 noundef 0, ptr noundef null, i32 noundef 2, ptr noundef nonnull %6, ptr noundef null)
  %.not.i.i.i = icmp eq ptr %17, null
  br i1 %.not.i.i.i, label %_ZN11ast_manager6mk_oeqEP4exprS1_.exit, label %18

18:                                               ; preds = %_ZN11ast_manager12mk_func_declEiijPK9parameterjPKP4exprP4sort.exit.i.i.i
  %19 = call noundef ptr @_ZN11ast_manager6mk_appEP9func_decljPKP4expr(ptr noundef nonnull align 8 dereferenceable(976) %0, ptr noundef nonnull %17, i32 noundef 2, ptr noundef nonnull %6)
  br label %_ZN11ast_manager6mk_oeqEP4exprS1_.exit

_ZN11ast_manager6mk_oeqEP4exprS1_.exit:           ; preds = %_ZNK6vectorIP11decl_pluginLb0EjE3getEjRKS1_.exit.i.i.i.i.i, %_ZNK11ast_manager10get_pluginEi.exit.i.i.i.i, %_ZN11ast_manager12mk_func_declEiijPK9parameterjPKP4exprP4sort.exit.i.i.i, %18
  %.0.i.i.i.ph = phi ptr [ null, %_ZNK6vectorIP11decl_pluginLb0EjE3getEjRKS1_.exit.i.i.i.i.i ], [ null, %_ZNK11ast_manager10get_pluginEi.exit.i.i.i.i ], [ null, %_ZN11ast_manager12mk_func_declEiijPK9parameterjPKP4exprP4sort.exit.i.i.i ], [ %19, %18 ]
  %.pr = load ptr, ptr %9, align 8, !tbaa !33
  call void @llvm.lifetime.end.p0(i64 16, ptr nonnull %6) #38
  call void @llvm.lifetime.start.p0(i64 16, ptr nonnull %5) #38
  store ptr %3, ptr %5, align 16, !tbaa !124
  %20 = getelementptr inbounds nuw i8, ptr %5, i64 8
  store ptr %.0.i.i.i.ph, ptr %20, align 8, !tbaa !124
  %21 = icmp eq ptr %.pr, null
  br i1 %21, label %_ZN11ast_manager6mk_appEiiP4exprS1_.exit, label %_ZNK6vectorIP11decl_pluginLb0EjE3getEjRKS1_.exit.i.i.i.i

_ZNK6vectorIP11decl_pluginLb0EjE3getEjRKS1_.exit.i.i.i.i: ; preds = %_ZN11ast_manager6mk_oeqEP4exprS1_.exit
  %22 = getelementptr inbounds i8, ptr %.pr, i64 -4
  %23 = load i32, ptr %22, align 4, !tbaa !24
  %.not.i.i.i.i.i.not = icmp eq i32 %23, 0
  br i1 %.not.i.i.i.i.i.not, label %_ZN11ast_manager6mk_appEiiP4exprS1_.exit, label %_ZNK11ast_manager10get_pluginEi.exit.i.i.i

_ZNK11ast_manager10get_pluginEi.exit.i.i.i:       ; preds = %_ZNK6vectorIP11decl_pluginLb0EjE3getEjRKS1_.exit.i.i.i.i
  %.then.val.i.i.i.i = load ptr, ptr %.pr, align 8, !tbaa !37
  %.not.i.i.i7 = icmp eq ptr %.then.val.i.i.i.i, null
  br i1 %.not.i.i.i7, label %_ZN11ast_manager6mk_appEiiP4exprS1_.exit, label %_ZN11ast_manager12mk_func_declEiijPK9parameterjPKP4exprP4sort.exit.i.i

_ZN11ast_manager12mk_func_declEiijPK9parameterjPKP4exprP4sort.exit.i.i: ; preds = %_ZNK11ast_manager10get_pluginEi.exit.i.i.i
  %24 = load ptr, ptr %.then.val.i.i.i.i, align 8, !tbaa !39
  %25 = getelementptr inbounds nuw i8, ptr %24, i64 64
  %26 = load ptr, ptr %25, align 8
  %27 = call noundef ptr %26(ptr noundef nonnull align 8 dereferenceable(20) %.then.val.i.i.i.i, i32 noundef 22, i32 noundef 0, ptr noundef null, i32 noundef 2, ptr noundef nonnull %5, ptr noundef null)
  %.not.i.i = icmp eq ptr %27, null
  br i1 %.not.i.i, label %_ZN11ast_manager6mk_appEiiP4exprS1_.exit, label %28

28:                                               ; preds = %_ZN11ast_manager12mk_func_declEiijPK9parameterjPKP4exprP4sort.exit.i.i
  %29 = call noundef ptr @_ZN11ast_manager6mk_appEP9func_decljPKP4expr(ptr noundef nonnull align 8 dereferenceable(976) %0, ptr noundef nonnull %27, i32 noundef 2, ptr noundef nonnull %5)
  br label %_ZN11ast_manager6mk_appEiiP4exprS1_.exit

_ZN11ast_manager6mk_appEiiP4exprS1_.exit:         ; preds = %_ZN11ast_manager6mk_oeqEP4exprS1_.exit.thread, %_ZN11ast_manager6mk_oeqEP4exprS1_.exit, %_ZNK6vectorIP11decl_pluginLb0EjE3getEjRKS1_.exit.i.i.i.i, %_ZNK11ast_manager10get_pluginEi.exit.i.i.i, %_ZN11ast_manager12mk_func_declEiijPK9parameterjPKP4exprP4sort.exit.i.i, %28
  %.0.i.i = phi ptr [ %29, %28 ], [ null, %_ZN11ast_manager12mk_func_declEiijPK9parameterjPKP4exprP4sort.exit.i.i ], [ null, %_ZNK11ast_manager10get_pluginEi.exit.i.i.i ], [ null, %_ZNK6vectorIP11decl_pluginLb0EjE3getEjRKS1_.exit.i.i.i.i ], [ null, %_ZN11ast_manager6mk_oeqEP4exprS1_.exit ], [ null, %_ZN11ast_manager6mk_oeqEP4exprS1_.exit.thread ]
  call void @llvm.lifetime.end.p0(i64 16, ptr nonnull %5) #38
  br label %30

30:                                               ; preds = %4, %_ZN11ast_manager6mk_appEiiP4exprS1_.exit
  %.0 = phi ptr [ %.0.i.i, %_ZN11ast_manager6mk_appEiiP4exprS1_.exit ], [ null, %4 ]
  ret ptr %.0
}